target datalayout = "e-m:e-p270:32:32-p271:32:32-p272:64:64-i64:64-i128:128-f80:128-n8:16:32:64-S128"
target triple = "x86_64-pc-linux-gnu"

; Function Attrs: nounwind uwtable
define internal i32 @zueci_u_utf16be(i32 noundef %0, ptr noundef %1) #0 {
  %3 = alloca i32, align 4
  %4 = alloca i32, align 4
  %5 = alloca ptr, align 8
  %6 = alloca i32, align 4
  %7 = alloca i32, align 4
  store i32 %0, ptr %4, align 4
  store ptr %1, ptr %5, align 8
  %8 = load i32, ptr %4, align 4
  %9 = icmp ult i32 %8, 65536
  br i1 %9, label %10, label %20

10:                                               ; preds = %2
  %11 = load i32, ptr %4, align 4
  %12 = lshr i32 %11, 8
  %13 = trunc i32 %12 to i8
  %14 = load ptr, ptr %5, align 8
  %15 = getelementptr inbounds i8, ptr %14, i64 0
  store i8 %13, ptr %15, align 1
  %16 = load i32, ptr %4, align 4
  %17 = trunc i32 %16 to i8
  %18 = load ptr, ptr %5, align 8
  %19 = getelementptr inbounds i8, ptr %18, i64 1
  store i8 %17, ptr %19, align 1
  store i32 2, ptr %3, align 4
  br label %47

20:                                               ; preds = %2
  %21 = load i32, ptr %4, align 4
  %22 = sub i32 %21, 65536
  store i32 %22, ptr %6, align 4
  %23 = load i32, ptr %6, align 4
  %24 = lshr i32 %23, 10
  store i32 %24, ptr %7, align 4
  %25 = load i32, ptr %7, align 4
  %26 = lshr i32 %25, 8
  %27 = add i32 216, %26
  %28 = trunc i32 %27 to i8
  %29 = load ptr, ptr %5, align 8
  %30 = getelementptr inbounds i8, ptr %29, i64 0
  store i8 %28, ptr %30, align 1
  %31 = load i32, ptr %7, align 4
  %32 = trunc i32 %31 to i8
  %33 = load ptr, ptr %5, align 8
  %34 = getelementptr inbounds i8, ptr %33, i64 1
  store i8 %32, ptr %34, align 1
  %35 = load i32, ptr %6, align 4
  %36 = and i32 %35, 1023
  store i32 %36, ptr %7, align 4
  %37 = load i32, ptr %7, align 4
  %38 = lshr i32 %37, 8
  %39 = add i32 220, %38
  %40 = trunc i32 %39 to i8
  %41 = load ptr, ptr %5, align 8
  %42 = getelementptr inbounds i8, ptr %41, i64 2
  store i8 %40, ptr %42, align 1
  %43 = load i32, ptr %7, align 4
  %44 = trunc i32 %43 to i8
  %45 = load ptr, ptr %5, align 8
  %46 = getelementptr inbounds i8, ptr %45, i64 3
  store i8 %44, ptr %46, align 1
  store i32 4, ptr %3, align 4
  br label %47

47:                                               ; preds = %20, %10
  %48 = load i32, ptr %3, align 4
  ret i32 %48
}